target datalayout = "e-m:e-p270:32:32-p271:32:32-p272:64:64-i64:64-i128:128-f80:128-n8:16:32:64-S128"
target triple = "x86_64-pc-linux-gnu"

%class.LockStack = type { i32, i64, [8 x ptr] }

@_ZN9LockStack22lock_stack_base_offsetE = hidden global i32 0, align 4
@.str = private unnamed_addr constant [16 x i8] c"LockStack[%d]: \00", align 1
@.str.7 = private unnamed_addr constant [21 x i8] c"not an oop: 0x%016lx\00", align 1

; Function Attrs: mustprogress nounwind uwtable
define linkonce_odr hidden noundef i64 @_Z3p2iPVKv(ptr noundef %0) #1 comdat {
  %2 = alloca ptr, align 8
  store ptr %0, ptr %2, align 8
  %3 = load ptr, ptr %2, align 8
  %4 = ptrtoint ptr %3 to i64
  ret i64 %4
}

; Function Attrs: mustprogress nounwind uwtable
define linkonce_odr hidden noundef i32 @_ZN9LockStack8to_indexEj(i32 noundef %0) #1 comdat align 2 {
  %2 = alloca i32, align 4
  store i32 %0, ptr %2, align 4
  %3 = load i32, ptr %2, align 4
  %4 = load i32, ptr @_ZN9LockStack22lock_stack_base_offsetE, align 4
  %5 = sub i32 %3, %4
  %6 = udiv i32 %5, 8
  ret i32 %6
}

; Function Attrs: mustprogress nounwind uwtable
define hidden void @_ZN9LockStack8print_onEP12outputStream(ptr noundef nonnull align 8 dereferenceable(80) %0, ptr noundef %1) #1 align 2 {
  %3 = alloca ptr, align 8
  %4 = alloca ptr, align 8
  %5 = alloca i32, align 4
  %6 = alloca ptr, align 8
  store ptr %0, ptr %3, align 8
  store ptr %1, ptr %4, align 8
  %7 = load ptr, ptr %3, align 8
  %8 = getelementptr inbounds %class.LockStack, ptr %7, i32 0, i32 0
  %9 = load i32, ptr %8, align 8
  %10 = call noundef i32 @_ZN9LockStack8to_indexEj(i32 noundef %9)
  store i32 %10, ptr %5, align 4
  br label %11

11:                                               ; preds = %32, %2
  %12 = load i32, ptr %5, align 4
  %13 = add nsw i32 %12, -1
  store i32 %13, ptr %5, align 4
  %14 = icmp sge i32 %13, 0
  br i1 %14, label %15, label %33

15:                                               ; preds = %11
  %16 = load ptr, ptr %4, align 8
  %17 = load i32, ptr %5, align 4
  call void (ptr, ptr, ...) @_ZN12outputStream5printEPKcz(ptr noundef nonnull align 8 dereferenceable(56) %16, ptr noundef @.str, i32 noundef %17)
  %18 = getelementptr inbounds %class.LockStack, ptr %7, i32 0, i32 2
  %19 = load i32, ptr %5, align 4
  %20 = sext i32 %19 to i64
  %21 = getelementptr inbounds [8 x ptr], ptr %18, i64 0, i64 %20
  %22 = load ptr, ptr %21, align 8
  store ptr %22, ptr %6, align 8
  %23 = load ptr, ptr %6, align 8
  %24 = call noundef zeroext i1 @_ZN7oopDesc6is_oopEPS_b(ptr noundef %23, i1 noundef zeroext false)
  br i1 %24, label %25, label %28

25:                                               ; preds = %15
  %26 = load ptr, ptr %6, align 8
  %27 = load ptr, ptr %4, align 8
  call void @_ZNK7oopDesc8print_onEP12outputStream(ptr noundef nonnull align 8 dereferenceable(16) %26, ptr noundef %27)
  br label %32

28:                                               ; preds = %15
  %29 = load ptr, ptr %4, align 8
  %30 = load ptr, ptr %6, align 8
  %31 = call noundef i64 @_Z3p2iPVKv(ptr noundef %30)
  call void (ptr, ptr, ...) @_ZN12outputStream8print_crEPKcz(ptr noundef nonnull align 8 dereferenceable(56) %29, ptr noundef @.str.7, i64 noundef %31)
  br label %32

32:                                               ; preds = %28, %25
  br label %11, !llvm.loop !6

33:                                               ; preds = %11
  ret void
}