; Function Attrs: mustprogress nounwind uwtable
define hidden void @_ZN9LockStack8print_onEP12outputStream(ptr nocapture noundef nonnull readonly align 8 dereferenceable(80) %0, ptr noundef %1) local_unnamed_addr #3 align 2 {
  %3 = load i32, ptr %0, align 8
  %4 = load i32, ptr @_ZN9LockStack22lock_stack_base_offsetE, align 4
  %5 = sub i32 %3, %4
  %.not = icmp ult i32 %5, 8
  br i1 %.not, label %._crit_edge, label %.lr.ph

.lr.ph:                                           ; preds = %2
  %6 = getelementptr inbounds i8, ptr %0, i64 16
  %7 = lshr i32 %5, 3
  %8 = zext nneg i32 %7 to i64
  br label %9

9:                                                ; preds = %.lr.ph, %17
  %indvars.iv = phi i64 [ %8, %.lr.ph ], [ %indvars.iv.next, %17 ]
  %indvars.iv.next = add nsw i64 %indvars.iv, -1
  %10 = trunc nsw i64 %indvars.iv.next to i32
  tail call void (ptr, ptr, ...) @_ZN12outputStream5printEPKcz(ptr noundef nonnull align 8 dereferenceable(56) %1, ptr noundef nonnull @.str, i32 noundef %10) #6
  %11 = getelementptr inbounds [8 x ptr], ptr %6, i64 0, i64 %indvars.iv.next
  %12 = load ptr, ptr %11, align 8
  %13 = tail call noundef zeroext i1 @_ZN7oopDesc6is_oopEPS_b(ptr noundef %12, i1 noundef zeroext false) #6
  br i1 %13, label %14, label %15

14:                                               ; preds = %9
  tail call void @_ZNK7oopDesc8print_onEP12outputStream(ptr noundef nonnull align 8 dereferenceable(16) %12, ptr noundef nonnull %1) #6
  br label %17

15:                                               ; preds = %9
  %16 = ptrtoint ptr %12 to i64
  tail call void (ptr, ptr, ...) @_ZN12outputStream8print_crEPKcz(ptr noundef nonnull align 8 dereferenceable(56) %1, ptr noundef nonnull @.str.7, i64 noundef %16) #6
  br label %17

17:                                               ; preds = %15, %14
  %18 = icmp ugt i64 %indvars.iv, 1
  br i1 %18, label %9, label %._crit_edge, !llvm.loop !6

._crit_edge:                                      ; preds = %17, %2
  ret void
}